target datalayout = "e-m:e-p270:32:32-p271:32:32-p272:64:64-i64:64-i128:128-f80:128-n8:16:32:64-S128"
target triple = "x86_64-pc-linux-gnu"

%struct.KINMemRec = type { double, ptr, ptr, double, double, i32, i32, i64, i64, i64, i64, i32, i32, i32, i32, i32, i32, i32, i32, i32, double, double, double, double, double, double, double, double, double, i32, double, i64, i64, i64, i64, i64, i64, i64, ptr, ptr, ptr, ptr, ptr, ptr, ptr, ptr, ptr, ptr, ptr, ptr, ptr, ptr, ptr, ptr, ptr, ptr, i64, i32, i32, i64, i64, i64, i64, ptr, ptr, ptr, ptr, i32, ptr, double, double, double, double, double, i32, double, double, double, i32, ptr, ptr, ptr, ptr, ptr, ptr }

@.str = private unnamed_addr constant [7 x i8] c"KINSOL\00", align 1
@.str.2 = private unnamed_addr constant [27 x i8] c"kinsol_mem = NULL illegal.\00", align 1
@.str.23 = private unnamed_addr constant [16 x i8] c"KINSetEtaParams\00", align 1
@.str.24 = private unnamed_addr constant [20 x i8] c"alpha out of range.\00", align 1
@.str.25 = private unnamed_addr constant [20 x i8] c"gamma out of range.\00", align 1

; Function Attrs: nounwind uwtable
define i32 @KINSetEtaParams(ptr noundef %0, double noundef %1, double noundef %2) #0 {
  %4 = alloca i32, align 4
  %5 = alloca ptr, align 8
  %6 = alloca double, align 8
  %7 = alloca double, align 8
  %8 = alloca ptr, align 8
  store ptr %0, ptr %5, align 8
  store double %1, ptr %6, align 8
  store double %2, ptr %7, align 8
  %9 = load ptr, ptr %5, align 8
  %10 = icmp eq ptr %9, null
  br i1 %10, label %11, label %12

11:                                               ; preds = %3
  call void (ptr, i32, ptr, ptr, ptr, ...) @KINProcessError(ptr noundef null, i32 noundef -1, ptr noundef @.str, ptr noundef @.str.23, ptr noundef @.str.2)
  store i32 -1, ptr %4, align 4
  br label %56

12:                                               ; preds = %3
  %13 = load ptr, ptr %5, align 8
  store ptr %13, ptr %8, align 8
  %14 = load double, ptr %7, align 8
  %15 = fcmp ole double %14, 1.000000e+00
  br i1 %15, label %19, label %16

16:                                               ; preds = %12
  %17 = load double, ptr %7, align 8
  %18 = fcmp ogt double %17, 2.000000e+00
  br i1 %18, label %19, label %24

19:                                               ; preds = %16, %12
  %20 = load double, ptr %7, align 8
  %21 = fcmp une double %20, 0.000000e+00
  br i1 %21, label %22, label %23

22:                                               ; preds = %19
  call void (ptr, i32, ptr, ptr, ptr, ...) @KINProcessError(ptr noundef null, i32 noundef -2, ptr noundef @.str, ptr noundef @.str.23, ptr noundef @.str.24)
  store i32 -2, ptr %4, align 4
  br label %56

23:                                               ; preds = %19
  br label %24

24:                                               ; preds = %23, %16
  %25 = load double, ptr %7, align 8
  %26 = fcmp oeq double %25, 0.000000e+00
  br i1 %26, label %27, label %30

27:                                               ; preds = %24
  %28 = load ptr, ptr %8, align 8
  %29 = getelementptr inbounds %struct.KINMemRec, ptr %28, i32 0, i32 28
  store double 2.000000e+00, ptr %29, align 8
  br label %34

30:                                               ; preds = %24
  %31 = load double, ptr %7, align 8
  %32 = load ptr, ptr %8, align 8
  %33 = getelementptr inbounds %struct.KINMemRec, ptr %32, i32 0, i32 28
  store double %31, ptr %33, align 8
  br label %34

34:                                               ; preds = %30, %27
  %35 = load double, ptr %6, align 8
  %36 = fcmp ole double %35, 0.000000e+00
  br i1 %36, label %40, label %37

37:                                               ; preds = %34
  %38 = load double, ptr %6, align 8
  %39 = fcmp ogt double %38, 1.000000e+00
  br i1 %39, label %40, label %45

40:                                               ; preds = %37, %34
  %41 = load double, ptr %6, align 8
  %42 = fcmp une double %41, 0.000000e+00
  br i1 %42, label %43, label %44

43:                                               ; preds = %40
  call void (ptr, i32, ptr, ptr, ptr, ...) @KINProcessError(ptr noundef null, i32 noundef -2, ptr noundef @.str, ptr noundef @.str.23, ptr noundef @.str.25)
  store i32 -2, ptr %4, align 4
  br label %56

44:                                               ; preds = %40
  br label %45

45:                                               ; preds = %44, %37
  %46 = load double, ptr %6, align 8
  %47 = fcmp oeq double %46, 0.000000e+00
  br i1 %47, label %48, label %51

48:                                               ; preds = %45
  %49 = load ptr, ptr %8, align 8
  %50 = getelementptr inbounds %struct.KINMemRec, ptr %49, i32 0, i32 27
  store double 9.000000e-01, ptr %50, align 8
  br label %55

51:                                               ; preds = %45
  %52 = load double, ptr %6, align 8
  %53 = load ptr, ptr %8, align 8
  %54 = getelementptr inbounds %struct.KINMemRec, ptr %53, i32 0, i32 27
  store double %52, ptr %54, align 8
  br label %55

55:                                               ; preds = %51, %48
  store i32 0, ptr %4, align 4
  br label %56

56:                                               ; preds = %55, %43, %22, %11
  %57 = load i32, ptr %4, align 4
  ret i32 %57
}